target datalayout = "e-m:e-p270:32:32-p271:32:32-p272:64:64-i64:64-i128:128-f80:128-n8:16:32:64-S128"
target triple = "x86_64-unknown-linux-gnu"

%"class.dd::solver" = type { ptr, ptr, ptr, %"class.dd::solver::stats", %"struct.dd::solver::config", %"class.std::function", %class.ptr_vector, %class.ptr_vector, %class.ptr_vector, %class.vector.0, %class.ptr_vector, ptr, i8, i32, %class.svector, %class.svector }
%"class.dd::solver::stats" = type <{ i32, [4 x i8], double, i32, i32, i32, [4 x i8] }>
%"struct.dd::solver::config" = type { i32, i32, i32, i32, i32, i32, i8, i32, i32, i32, i32 }
%"class.std::function" = type { %"class.std::_Function_base", ptr }
%"class.std::_Function_base" = type { %"union.std::_Any_data", ptr }
%"union.std::_Any_data" = type { %"union.std::_Nocopy_types" }
%"union.std::_Nocopy_types" = type { { i64, i64 } }
%class.vector.0 = type { ptr }
%class.ptr_vector = type { %class.vector }
%class.vector = type { ptr }
%class.svector = type { %class.vector.1 }
%class.vector.1 = type { ptr }
%class.rational = type { %class.mpq }
%class.mpq = type { %class.mpz, %class.mpz }
%class.mpz = type { i32, i8, ptr }
%"class.dd::pdd_manager" = type { %class.svector.2, %class.vector.4, %class.ptr_hashtable, %class.hashtable, %class.hashtable.7, %class.map, %class.svector, ptr, %class.svector, %class.svector, %class.svector, %class.svector, %class.small_object_allocator, %class.svector, i32, %class.svector, %class.svector, %class.svector.13, i8, i8, i32, i32, %class.svector, %class.svector, %class.rational, %class.rational, i32, %class.rational, %class.svector, i32, %class.svector, %class.svector, %class.rational, %class.rational }
%class.svector.2 = type { %class.vector.3 }
%class.vector.3 = type { ptr }
%class.vector.4 = type { ptr }
%class.ptr_hashtable = type { %class.core_hashtable.base, [4 x i8] }
%class.core_hashtable.base = type <{ ptr, i32, i32, i32 }>
%class.hashtable = type { %class.core_hashtable.base.6, [4 x i8] }
%class.core_hashtable.base.6 = type <{ ptr, i32, i32, i32 }>
%class.hashtable.7 = type { %class.core_hashtable.base.9, [4 x i8] }
%class.core_hashtable.base.9 = type <{ ptr, i32, i32, i32 }>
%class.map = type { %class.table2map }
%class.table2map = type { %class.core_hashtable.11 }
%class.core_hashtable.11 = type <{ ptr, i32, i32, i32, [4 x i8] }>
%class.small_object_allocator = type { [32 x ptr], [32 x ptr], i64 }
%class.svector.13 = type { %class.vector.14 }
%class.vector.14 = type { ptr }

; Function Attrs: mustprogress nounwind uwtable
define linkonce_odr hidden noundef i32 @_ZNK6vectorIjLb0EjE8capacityEv(ptr noundef nonnull align 8 dereferenceable(8) %this) #5 comdat align 2 {
entry:
  %retval = alloca i32, align 4
  %this.addr = alloca ptr, align 8
  store ptr %this, ptr %this.addr, align 8
  %this1 = load ptr, ptr %this.addr, align 8
  %m_data = getelementptr inbounds %class.vector.1, ptr %this1, i32 0, i32 0
  %0 = load ptr, ptr %m_data, align 8
  %cmp = icmp eq ptr %0, null
  br i1 %cmp, label %if.then, label %if.end

if.then:                                          ; preds = %entry
  store i32 0, ptr %retval, align 4
  br label %return

if.end:                                           ; preds = %entry
  %m_data2 = getelementptr inbounds %class.vector.1, ptr %this1, i32 0, i32 0
  %1 = load ptr, ptr %m_data2, align 8
  %arrayidx = getelementptr inbounds i32, ptr %1, i64 -2
  %2 = load i32, ptr %arrayidx, align 4
  store i32 %2, ptr %retval, align 4
  br label %return

return:                                           ; preds = %if.end, %if.then
  %3 = load i32, ptr %retval, align 4
  ret i32 %3
}

; Function Attrs: mustprogress nounwind uwtable
define linkonce_odr hidden void @_ZN6vectorIjLb0EjE6shrinkEj(ptr noundef nonnull align 8 dereferenceable(8) %this, i32 noundef %s) #5 comdat align 2 {
entry:
  %this.addr = alloca ptr, align 8
  %s.addr = alloca i32, align 4
  store ptr %this, ptr %this.addr, align 8
  store i32 %s, ptr %s.addr, align 4
  %this1 = load ptr, ptr %this.addr, align 8
  %m_data = getelementptr inbounds %class.vector.1, ptr %this1, i32 0, i32 0
  %0 = load ptr, ptr %m_data, align 8
  %tobool = icmp ne ptr %0, null
  br i1 %tobool, label %if.then, label %if.else

if.then:                                          ; preds = %entry
  %1 = load i32, ptr %s.addr, align 4
  %m_data2 = getelementptr inbounds %class.vector.1, ptr %this1, i32 0, i32 0
  %2 = load ptr, ptr %m_data2, align 8
  %arrayidx = getelementptr inbounds i32, ptr %2, i64 -1
  store i32 %1, ptr %arrayidx, align 4
  br label %if.end

if.else:                                          ; preds = %entry
  br label %if.end

if.end:                                           ; preds = %if.else, %if.then
  ret void
}

; Function Attrs: mustprogress nounwind uwtable
define linkonce_odr hidden noundef nonnull align 4 dereferenceable(4) ptr @_ZN6vectorIjLb0EjEixEj(ptr noundef nonnull align 8 dereferenceable(8) %this, i32 noundef %idx) #5 comdat align 2 {
entry:
  %this.addr = alloca ptr, align 8
  %idx.addr = alloca i32, align 4
  store ptr %this, ptr %this.addr, align 8
  store i32 %idx, ptr %idx.addr, align 4
  %this1 = load ptr, ptr %this.addr, align 8
  %m_data = getelementptr inbounds %class.vector.1, ptr %this1, i32 0, i32 0
  %0 = load ptr, ptr %m_data, align 8
  %1 = load i32, ptr %idx.addr, align 4
  %idxprom = zext i32 %1 to i64
  %arrayidx = getelementptr inbounds i32, ptr %0, i64 %idxprom
  ret ptr %arrayidx
}

; Function Attrs: mustprogress nounwind uwtable
define linkonce_odr hidden noundef nonnull align 4 dereferenceable(4) ptr @_ZNK6vectorIjLb0EjEixEj(ptr noundef nonnull align 8 dereferenceable(8) %this, i32 noundef %idx) #5 comdat align 2 {
entry:
  %this.addr = alloca ptr, align 8
  %idx.addr = alloca i32, align 4
  store ptr %this, ptr %this.addr, align 8
  store i32 %idx, ptr %idx.addr, align 4
  %this1 = load ptr, ptr %this.addr, align 8
  %m_data = getelementptr inbounds %class.vector.1, ptr %this1, i32 0, i32 0
  %0 = load ptr, ptr %m_data, align 8
  %1 = load i32, ptr %idx.addr, align 4
  %idxprom = zext i32 %1 to i64
  %arrayidx = getelementptr inbounds i32, ptr %0, i64 %idxprom
  ret ptr %arrayidx
}

; Function Attrs: mustprogress uwtable
define linkonce_odr hidden void @_ZN6vectorIjLb0EjE6resizeEj(ptr noundef nonnull align 8 dereferenceable(8) %this, i32 noundef %s) #4 comdat align 2 {
entry:
  %this.addr = alloca ptr, align 8
  %s.addr = alloca i32, align 4
  %sz = alloca i32, align 4
  %it = alloca ptr, align 8
  %end = alloca ptr, align 8
  store ptr %this, ptr %this.addr, align 8
  store i32 %s, ptr %s.addr, align 4
  %this1 = load ptr, ptr %this.addr, align 8
  %call = call noundef i32 @_ZNK6vectorIjLb0EjE4sizeEv(ptr noundef nonnull align 8 dereferenceable(8) %this1)
  store i32 %call, ptr %sz, align 4
  %0 = load i32, ptr %s.addr, align 4
  %1 = load i32, ptr %sz, align 4
  %cmp = icmp ule i32 %0, %1
  br i1 %cmp, label %if.then, label %if.end

if.then:                                          ; preds = %entry
  %2 = load i32, ptr %s.addr, align 4
  call void @_ZN6vectorIjLb0EjE6shrinkEj(ptr noundef nonnull align 8 dereferenceable(8) %this1, i32 noundef %2)
  br label %for.end

if.end:                                           ; preds = %entry
  br label %while.cond

while.cond:                                       ; preds = %while.body, %if.end
  %3 = load i32, ptr %s.addr, align 4
  %call2 = call noundef i32 @_ZNK6vectorIjLb0EjE8capacityEv(ptr noundef nonnull align 8 dereferenceable(8) %this1)
  %cmp3 = icmp ugt i32 %3, %call2
  br i1 %cmp3, label %while.body, label %while.end

while.body:                                       ; preds = %while.cond
  call void @_ZN6vectorIjLb0EjE13expand_vectorEv(ptr noundef nonnull align 8 dereferenceable(8) %this1)
  br label %while.cond, !llvm.loop !13

while.end:                                        ; preds = %while.cond
  %4 = load i32, ptr %s.addr, align 4
  %m_data = getelementptr inbounds %class.vector.1, ptr %this1, i32 0, i32 0
  %5 = load ptr, ptr %m_data, align 8
  %arrayidx = getelementptr inbounds i32, ptr %5, i64 -1
  store i32 %4, ptr %arrayidx, align 4
  %m_data4 = getelementptr inbounds %class.vector.1, ptr %this1, i32 0, i32 0
  %6 = load ptr, ptr %m_data4, align 8
  %7 = load i32, ptr %sz, align 4
  %idx.ext = zext i32 %7 to i64
  %add.ptr = getelementptr inbounds i32, ptr %6, i64 %idx.ext
  store ptr %add.ptr, ptr %it, align 8
  %m_data5 = getelementptr inbounds %class.vector.1, ptr %this1, i32 0, i32 0
  %8 = load ptr, ptr %m_data5, align 8
  %9 = load i32, ptr %s.addr, align 4
  %idx.ext6 = zext i32 %9 to i64
  %add.ptr7 = getelementptr inbounds i32, ptr %8, i64 %idx.ext6
  store ptr %add.ptr7, ptr %end, align 8
  br label %for.cond

for.cond:                                         ; preds = %for.inc, %while.end
  %10 = load ptr, ptr %it, align 8
  %11 = load ptr, ptr %end, align 8
  %cmp8 = icmp ne ptr %10, %11
  br i1 %cmp8, label %for.body, label %for.end

for.body:                                         ; preds = %for.cond
  %12 = load ptr, ptr %it, align 8
  store i32 0, ptr %12, align 4
  br label %for.inc

for.inc:                                          ; preds = %for.body
  %13 = load ptr, ptr %it, align 8
  %incdec.ptr = getelementptr inbounds i32, ptr %13, i32 1
  store ptr %incdec.ptr, ptr %it, align 8
  br label %for.cond, !llvm.loop !14

for.end:                                          ; preds = %for.cond, %if.then
  ret void
}

; Function Attrs: mustprogress nounwind uwtable
define linkonce_odr hidden noundef i32 @_ZNK6vectorIjLb0EjE4sizeEv(ptr noundef nonnull align 8 dereferenceable(8) %this) #5 comdat align 2 {
entry:
  %retval = alloca i32, align 4
  %this.addr = alloca ptr, align 8
  store ptr %this, ptr %this.addr, align 8
  %this1 = load ptr, ptr %this.addr, align 8
  %m_data = getelementptr inbounds %class.vector.1, ptr %this1, i32 0, i32 0
  %0 = load ptr, ptr %m_data, align 8
  %cmp = icmp eq ptr %0, null
  br i1 %cmp, label %if.then, label %if.end

if.then:                                          ; preds = %entry
  store i32 0, ptr %retval, align 4
  br label %return

if.end:                                           ; preds = %entry
  %m_data2 = getelementptr inbounds %class.vector.1, ptr %this1, i32 0, i32 0
  %1 = load ptr, ptr %m_data2, align 8
  %arrayidx = getelementptr inbounds i32, ptr %1, i64 -1
  %2 = load i32, ptr %arrayidx, align 4
  store i32 %2, ptr %retval, align 4
  br label %return

return:                                           ; preds = %if.end, %if.then
  %3 = load i32, ptr %retval, align 4
  ret i32 %3
}

; Function Attrs: mustprogress nounwind uwtable
define linkonce_odr hidden noundef nonnull align 8 dereferenceable(8) ptr @_ZNK2dd11pdd_manager13get_level2varEv(ptr noundef nonnull align 8 dereferenceable(952) %this) #5 comdat align 2 {
entry:
  %this.addr = alloca ptr, align 8
  store ptr %this, ptr %this.addr, align 8
  %this1 = load ptr, ptr %this.addr, align 8
  %m_level2var = getelementptr inbounds %"class.dd::pdd_manager", ptr %this1, i32 0, i32 10
  ret ptr %m_level2var
}

; Function Attrs: mustprogress uwtable
define hidden void @_ZN2dd6solver13init_saturateEv(ptr noundef nonnull align 8 dereferenceable(208) %this) #4 align 2 {
entry:
  %this.addr = alloca ptr, align 8
  %l2v = alloca ptr, align 8
  %i = alloca i32, align 4
  store ptr %this, ptr %this.addr, align 8
  %this1 = load ptr, ptr %this.addr, align 8
  %m = getelementptr inbounds %"class.dd::solver", ptr %this1, i32 0, i32 0
  %0 = load ptr, ptr %m, align 8
  %call = call noundef nonnull align 8 dereferenceable(8) ptr @_ZNK2dd11pdd_manager13get_level2varEv(ptr noundef nonnull align 8 dereferenceable(952) %0)
  store ptr %call, ptr %l2v, align 8
  %m_level2var = getelementptr inbounds %"class.dd::solver", ptr %this1, i32 0, i32 14
  %1 = load ptr, ptr %l2v, align 8
  %call2 = call noundef i32 @_ZNK6vectorIjLb0EjE4sizeEv(ptr noundef nonnull align 8 dereferenceable(8) %1)
  call void @_ZN6vectorIjLb0EjE6resizeEj(ptr noundef nonnull align 8 dereferenceable(8) %m_level2var, i32 noundef %call2)
  %m_var2level = getelementptr inbounds %"class.dd::solver", ptr %this1, i32 0, i32 15
  %2 = load ptr, ptr %l2v, align 8
  %call3 = call noundef i32 @_ZNK6vectorIjLb0EjE4sizeEv(ptr noundef nonnull align 8 dereferenceable(8) %2)
  call void @_ZN6vectorIjLb0EjE6resizeEj(ptr noundef nonnull align 8 dereferenceable(8) %m_var2level, i32 noundef %call3)
  store i32 0, ptr %i, align 4
  br label %for.cond

for.cond:                                         ; preds = %for.inc, %entry
  %3 = load i32, ptr %i, align 4
  %4 = load ptr, ptr %l2v, align 8
  %call4 = call noundef i32 @_ZNK6vectorIjLb0EjE4sizeEv(ptr noundef nonnull align 8 dereferenceable(8) %4)
  %cmp = icmp ult i32 %3, %call4
  br i1 %cmp, label %for.body, label %for.end

for.body:                                         ; preds = %for.cond
  %5 = load ptr, ptr %l2v, align 8
  %6 = load i32, ptr %i, align 4
  %call5 = call noundef nonnull align 4 dereferenceable(4) ptr @_ZNK6vectorIjLb0EjEixEj(ptr noundef nonnull align 8 dereferenceable(8) %5, i32 noundef %6)
  %7 = load i32, ptr %call5, align 4
  %m_level2var6 = getelementptr inbounds %"class.dd::solver", ptr %this1, i32 0, i32 14
  %8 = load i32, ptr %i, align 4
  %call7 = call noundef nonnull align 4 dereferenceable(4) ptr @_ZN6vectorIjLb0EjEixEj(ptr noundef nonnull align 8 dereferenceable(8) %m_level2var6, i32 noundef %8)
  store i32 %7, ptr %call7, align 4
  %9 = load i32, ptr %i, align 4
  %m_var2level8 = getelementptr inbounds %"class.dd::solver", ptr %this1, i32 0, i32 15
  %10 = load ptr, ptr %l2v, align 8
  %11 = load i32, ptr %i, align 4
  %call9 = call noundef nonnull align 4 dereferenceable(4) ptr @_ZNK6vectorIjLb0EjEixEj(ptr noundef nonnull align 8 dereferenceable(8) %10, i32 noundef %11)
  %12 = load i32, ptr %call9, align 4
  %call10 = call noundef nonnull align 4 dereferenceable(4) ptr @_ZN6vectorIjLb0EjEixEj(ptr noundef nonnull align 8 dereferenceable(8) %m_var2level8, i32 noundef %12)
  store i32 %9, ptr %call10, align 4
  br label %for.inc

for.inc:                                          ; preds = %for.body
  %13 = load i32, ptr %i, align 4
  %inc = add i32 %13, 1
  store i32 %inc, ptr %i, align 4
  br label %for.cond, !llvm.loop !6

for.end:                                          ; preds = %for.cond
  %m_level2var11 = getelementptr inbounds %"class.dd::solver", ptr %this1, i32 0, i32 14
  %call12 = call noundef i32 @_ZNK6vectorIjLb0EjE4sizeEv(ptr noundef nonnull align 8 dereferenceable(8) %m_level2var11)
  %m_levelp1 = getelementptr inbounds %"class.dd::solver", ptr %this1, i32 0, i32 13
  store i32 %call12, ptr %m_levelp1, align 4
  ret void
}